
RGB.elf:     file format elf32-avr

Sections:
Idx Name          Size      VMA       LMA       File off  Algn
  0 .data         000000a0  00800100  000009fc  00000a90  2**0
                  CONTENTS, ALLOC, LOAD, DATA
  1 .text         000009fc  00000000  00000000  00000094  2**1
                  CONTENTS, ALLOC, LOAD, READONLY, CODE
  2 .bss          0000000f  008001a0  008001a0  00000b30  2**0
                  ALLOC
  3 .comment      00000030  00000000  00000000  00000b30  2**0
                  CONTENTS, READONLY
  4 .note.gnu.avr.deviceinfo 00000040  00000000  00000000  00000b60  2**2
                  CONTENTS, READONLY
  5 .debug_aranges 000000c8  00000000  00000000  00000ba0  2**0
                  CONTENTS, READONLY, DEBUGGING
  6 .debug_info   0000179e  00000000  00000000  00000c68  2**0
                  CONTENTS, READONLY, DEBUGGING
  7 .debug_abbrev 0000089b  00000000  00000000  00002406  2**0
                  CONTENTS, READONLY, DEBUGGING
  8 .debug_line   00000b41  00000000  00000000  00002ca1  2**0
                  CONTENTS, READONLY, DEBUGGING
  9 .debug_frame  00000228  00000000  00000000  000037e4  2**2
                  CONTENTS, READONLY, DEBUGGING
 10 .debug_str    0000053e  00000000  00000000  00003a0c  2**0
                  CONTENTS, READONLY, DEBUGGING
 11 .debug_loc    000008c3  00000000  00000000  00003f4a  2**0
                  CONTENTS, READONLY, DEBUGGING
 12 .debug_ranges 000000b8  00000000  00000000  0000480d  2**0
                  CONTENTS, READONLY, DEBUGGING

Disassembly of section .text:

00000000 <__vectors>:
   0:	0c 94 34 00 	jmp	0x68	; 0x68 <__ctors_end>
   4:	0c 94 51 00 	jmp	0xa2	; 0xa2 <__bad_interrupt>
   8:	0c 94 51 00 	jmp	0xa2	; 0xa2 <__bad_interrupt>
   c:	0c 94 51 00 	jmp	0xa2	; 0xa2 <__bad_interrupt>
  10:	0c 94 51 00 	jmp	0xa2	; 0xa2 <__bad_interrupt>
  14:	0c 94 51 00 	jmp	0xa2	; 0xa2 <__bad_interrupt>
  18:	0c 94 51 00 	jmp	0xa2	; 0xa2 <__bad_interrupt>
  1c:	0c 94 51 00 	jmp	0xa2	; 0xa2 <__bad_interrupt>
  20:	0c 94 51 00 	jmp	0xa2	; 0xa2 <__bad_interrupt>
  24:	0c 94 51 00 	jmp	0xa2	; 0xa2 <__bad_interrupt>
  28:	0c 94 51 00 	jmp	0xa2	; 0xa2 <__bad_interrupt>
  2c:	0c 94 51 00 	jmp	0xa2	; 0xa2 <__bad_interrupt>
  30:	0c 94 51 00 	jmp	0xa2	; 0xa2 <__bad_interrupt>
  34:	0c 94 51 00 	jmp	0xa2	; 0xa2 <__bad_interrupt>
  38:	0c 94 51 00 	jmp	0xa2	; 0xa2 <__bad_interrupt>
  3c:	0c 94 51 00 	jmp	0xa2	; 0xa2 <__bad_interrupt>
  40:	0c 94 51 00 	jmp	0xa2	; 0xa2 <__bad_interrupt>
  44:	0c 94 51 00 	jmp	0xa2	; 0xa2 <__bad_interrupt>
  48:	0c 94 51 00 	jmp	0xa2	; 0xa2 <__bad_interrupt>
  4c:	0c 94 51 00 	jmp	0xa2	; 0xa2 <__bad_interrupt>
  50:	0c 94 51 00 	jmp	0xa2	; 0xa2 <__bad_interrupt>
  54:	0c 94 51 00 	jmp	0xa2	; 0xa2 <__bad_interrupt>
  58:	0c 94 51 00 	jmp	0xa2	; 0xa2 <__bad_interrupt>
  5c:	0c 94 51 00 	jmp	0xa2	; 0xa2 <__bad_interrupt>
  60:	0c 94 51 00 	jmp	0xa2	; 0xa2 <__bad_interrupt>
  64:	0c 94 51 00 	jmp	0xa2	; 0xa2 <__bad_interrupt>

00000068 <__ctors_end>:
  68:	11 24       	eor	r1, r1
  6a:	1f be       	out	0x3f, r1	; 63
  6c:	cf ef       	ldi	r28, 0xFF	; 255
  6e:	d8 e0       	ldi	r29, 0x08	; 8
  70:	de bf       	out	0x3e, r29	; 62
  72:	cd bf       	out	0x3d, r28	; 61

00000074 <__do_copy_data>:
  74:	11 e0       	ldi	r17, 0x01	; 1
  76:	a0 e0       	ldi	r26, 0x00	; 0
  78:	b1 e0       	ldi	r27, 0x01	; 1
  7a:	ec ef       	ldi	r30, 0xFC	; 252
  7c:	f9 e0       	ldi	r31, 0x09	; 9
  7e:	02 c0       	rjmp	.+4      	; 0x84 <__do_copy_data+0x10>
  80:	05 90       	lpm	r0, Z+
  82:	0d 92       	st	X+, r0
  84:	a0 3a       	cpi	r26, 0xA0	; 160
  86:	b1 07       	cpc	r27, r17
  88:	d9 f7       	brne	.-10     	; 0x80 <__do_copy_data+0xc>

0000008a <__do_clear_bss>:
  8a:	21 e0       	ldi	r18, 0x01	; 1
  8c:	a0 ea       	ldi	r26, 0xA0	; 160
  8e:	b1 e0       	ldi	r27, 0x01	; 1
  90:	01 c0       	rjmp	.+2      	; 0x94 <.do_clear_bss_start>

00000092 <.do_clear_bss_loop>:
  92:	1d 92       	st	X+, r1

00000094 <.do_clear_bss_start>:
  94:	af 3a       	cpi	r26, 0xAF	; 175
  96:	b2 07       	cpc	r27, r18
  98:	e1 f7       	brne	.-8      	; 0x92 <.do_clear_bss_loop>
  9a:	0e 94 21 03 	call	0x642	; 0x642 <main>
  9e:	0c 94 fc 04 	jmp	0x9f8	; 0x9f8 <_exit>

000000a2 <__bad_interrupt>:
  a2:	0c 94 00 00 	jmp	0	; 0x0 <__vectors>

000000a6 <i2c_init>:
}

void lcd_lef_sh()
{
	lcd_cmd(0x18);      //----Command for Left Shift
	delay(200);
  a6:	82 e6       	ldi	r24, 0x62	; 98
  a8:	80 93 b8 00 	sts	0x00B8, r24	; 0x8000b8 <__TEXT_REGION_LENGTH__+0x7f80b8>
  ac:	84 e0       	ldi	r24, 0x04	; 4
  ae:	80 93 bc 00 	sts	0x00BC, r24	; 0x8000bc <__TEXT_REGION_LENGTH__+0x7f80bc>
  b2:	10 92 b9 00 	sts	0x00B9, r1	; 0x8000b9 <__TEXT_REGION_LENGTH__+0x7f80b9>
  b6:	08 95       	ret

000000b8 <i2c_start>:
  b8:	84 ea       	ldi	r24, 0xA4	; 164
  ba:	80 93 bc 00 	sts	0x00BC, r24	; 0x8000bc <__TEXT_REGION_LENGTH__+0x7f80bc>
  be:	80 91 bc 00 	lds	r24, 0x00BC	; 0x8000bc <__TEXT_REGION_LENGTH__+0x7f80bc>
  c2:	88 23       	and	r24, r24
  c4:	e4 f7       	brge	.-8      	; 0xbe <i2c_start+0x6>
  c6:	08 95       	ret

000000c8 <i2c_write>:
  c8:	80 93 bb 00 	sts	0x00BB, r24	; 0x8000bb <__TEXT_REGION_LENGTH__+0x7f80bb>
  cc:	84 e8       	ldi	r24, 0x84	; 132
  ce:	80 93 bc 00 	sts	0x00BC, r24	; 0x8000bc <__TEXT_REGION_LENGTH__+0x7f80bc>
  d2:	80 91 bc 00 	lds	r24, 0x00BC	; 0x8000bc <__TEXT_REGION_LENGTH__+0x7f80bc>
  d6:	88 23       	and	r24, r24
  d8:	e4 f7       	brge	.-8      	; 0xd2 <i2c_write+0xa>
  da:	08 95       	ret

000000dc <delay>:
  dc:	40 e0       	ldi	r20, 0x00	; 0
  de:	50 e0       	ldi	r21, 0x00	; 0
  e0:	0a c0       	rjmp	.+20     	; 0xf6 <delay+0x1a>
  e2:	2f 5f       	subi	r18, 0xFF	; 255
  e4:	3f 4f       	sbci	r19, 0xFF	; 255
  e6:	02 c0       	rjmp	.+4      	; 0xec <delay+0x10>
  e8:	20 e0       	ldi	r18, 0x00	; 0
  ea:	30 e0       	ldi	r19, 0x00	; 0
  ec:	29 37       	cpi	r18, 0x79	; 121
  ee:	31 05       	cpc	r19, r1
  f0:	c4 f3       	brlt	.-16     	; 0xe2 <delay+0x6>
  f2:	4f 5f       	subi	r20, 0xFF	; 255
  f4:	5f 4f       	sbci	r21, 0xFF	; 255
  f6:	84 17       	cp	r24, r20
  f8:	95 07       	cpc	r25, r21
  fa:	b4 f7       	brge	.-20     	; 0xe8 <delay+0xc>
  fc:	08 95       	ret

000000fe <toggle>:
  fe:	eb eb       	ldi	r30, 0xBB	; 187
 100:	f0 e0       	ldi	r31, 0x00	; 0
 102:	80 81       	ld	r24, Z
 104:	82 60       	ori	r24, 0x02	; 2
 106:	80 83       	st	Z, r24
 108:	84 e8       	ldi	r24, 0x84	; 132
 10a:	80 93 bc 00 	sts	0x00BC, r24	; 0x8000bc <__TEXT_REGION_LENGTH__+0x7f80bc>
 10e:	80 91 bc 00 	lds	r24, 0x00BC	; 0x8000bc <__TEXT_REGION_LENGTH__+0x7f80bc>
 112:	88 23       	and	r24, r24
 114:	e4 f7       	brge	.-8      	; 0x10e <toggle+0x10>
 116:	81 e0       	ldi	r24, 0x01	; 1
 118:	90 e0       	ldi	r25, 0x00	; 0
 11a:	0e 94 6e 00 	call	0xdc	; 0xdc <delay>
 11e:	eb eb       	ldi	r30, 0xBB	; 187
 120:	f0 e0       	ldi	r31, 0x00	; 0
 122:	80 81       	ld	r24, Z
 124:	8d 7f       	andi	r24, 0xFD	; 253
 126:	80 83       	st	Z, r24
 128:	84 e8       	ldi	r24, 0x84	; 132
 12a:	80 93 bc 00 	sts	0x00BC, r24	; 0x8000bc <__TEXT_REGION_LENGTH__+0x7f80bc>
 12e:	80 91 bc 00 	lds	r24, 0x00BC	; 0x8000bc <__TEXT_REGION_LENGTH__+0x7f80bc>
 132:	88 23       	and	r24, r24
 134:	e4 f7       	brge	.-8      	; 0x12e <toggle+0x30>
 136:	08 95       	ret

00000138 <lcd_cmd_hf>:
 138:	eb eb       	ldi	r30, 0xBB	; 187
 13a:	f0 e0       	ldi	r31, 0x00	; 0
 13c:	90 81       	ld	r25, Z
 13e:	9e 7f       	andi	r25, 0xFE	; 254
 140:	90 83       	st	Z, r25
 142:	94 e8       	ldi	r25, 0x84	; 132
 144:	90 93 bc 00 	sts	0x00BC, r25	; 0x8000bc <__TEXT_REGION_LENGTH__+0x7f80bc>
 148:	90 91 bc 00 	lds	r25, 0x00BC	; 0x8000bc <__TEXT_REGION_LENGTH__+0x7f80bc>
 14c:	99 23       	and	r25, r25
 14e:	e4 f7       	brge	.-8      	; 0x148 <lcd_cmd_hf+0x10>
 150:	eb eb       	ldi	r30, 0xBB	; 187
 152:	f0 e0       	ldi	r31, 0x00	; 0
 154:	90 81       	ld	r25, Z
 156:	9f 70       	andi	r25, 0x0F	; 15
 158:	90 83       	st	Z, r25
 15a:	94 e8       	ldi	r25, 0x84	; 132
 15c:	90 93 bc 00 	sts	0x00BC, r25	; 0x8000bc <__TEXT_REGION_LENGTH__+0x7f80bc>
 160:	90 91 bc 00 	lds	r25, 0x00BC	; 0x8000bc <__TEXT_REGION_LENGTH__+0x7f80bc>
 164:	99 23       	and	r25, r25
 166:	e4 f7       	brge	.-8      	; 0x160 <lcd_cmd_hf+0x28>
 168:	eb eb       	ldi	r30, 0xBB	; 187
 16a:	f0 e0       	ldi	r31, 0x00	; 0
 16c:	90 81       	ld	r25, Z
 16e:	80 7f       	andi	r24, 0xF0	; 240
 170:	89 2b       	or	r24, r25
 172:	80 83       	st	Z, r24
 174:	84 e8       	ldi	r24, 0x84	; 132
 176:	80 93 bc 00 	sts	0x00BC, r24	; 0x8000bc <__TEXT_REGION_LENGTH__+0x7f80bc>
 17a:	80 91 bc 00 	lds	r24, 0x00BC	; 0x8000bc <__TEXT_REGION_LENGTH__+0x7f80bc>
 17e:	88 23       	and	r24, r24
 180:	e4 f7       	brge	.-8      	; 0x17a <lcd_cmd_hf+0x42>
 182:	0e 94 7f 00 	call	0xfe	; 0xfe <toggle>
 186:	08 95       	ret

00000188 <lcd_cmd>:
 188:	cf 93       	push	r28
 18a:	c8 2f       	mov	r28, r24
 18c:	eb eb       	ldi	r30, 0xBB	; 187
 18e:	f0 e0       	ldi	r31, 0x00	; 0
 190:	80 81       	ld	r24, Z
 192:	8e 7f       	andi	r24, 0xFE	; 254
 194:	80 83       	st	Z, r24
 196:	84 e8       	ldi	r24, 0x84	; 132
 198:	80 93 bc 00 	sts	0x00BC, r24	; 0x8000bc <__TEXT_REGION_LENGTH__+0x7f80bc>
 19c:	80 91 bc 00 	lds	r24, 0x00BC	; 0x8000bc <__TEXT_REGION_LENGTH__+0x7f80bc>
 1a0:	88 23       	and	r24, r24
 1a2:	e4 f7       	brge	.-8      	; 0x19c <lcd_cmd+0x14>
 1a4:	eb eb       	ldi	r30, 0xBB	; 187
 1a6:	f0 e0       	ldi	r31, 0x00	; 0
 1a8:	80 81       	ld	r24, Z
 1aa:	8f 70       	andi	r24, 0x0F	; 15
 1ac:	80 83       	st	Z, r24
 1ae:	84 e8       	ldi	r24, 0x84	; 132
 1b0:	80 93 bc 00 	sts	0x00BC, r24	; 0x8000bc <__TEXT_REGION_LENGTH__+0x7f80bc>
 1b4:	80 91 bc 00 	lds	r24, 0x00BC	; 0x8000bc <__TEXT_REGION_LENGTH__+0x7f80bc>
 1b8:	88 23       	and	r24, r24
 1ba:	e4 f7       	brge	.-8      	; 0x1b4 <lcd_cmd+0x2c>
 1bc:	eb eb       	ldi	r30, 0xBB	; 187
 1be:	f0 e0       	ldi	r31, 0x00	; 0
 1c0:	80 81       	ld	r24, Z
 1c2:	9c 2f       	mov	r25, r28
 1c4:	90 7f       	andi	r25, 0xF0	; 240
 1c6:	89 2b       	or	r24, r25
 1c8:	80 83       	st	Z, r24
 1ca:	84 e8       	ldi	r24, 0x84	; 132
 1cc:	80 93 bc 00 	sts	0x00BC, r24	; 0x8000bc <__TEXT_REGION_LENGTH__+0x7f80bc>
 1d0:	80 91 bc 00 	lds	r24, 0x00BC	; 0x8000bc <__TEXT_REGION_LENGTH__+0x7f80bc>
 1d4:	88 23       	and	r24, r24
 1d6:	e4 f7       	brge	.-8      	; 0x1d0 <lcd_cmd+0x48>
 1d8:	0e 94 7f 00 	call	0xfe	; 0xfe <toggle>
 1dc:	eb eb       	ldi	r30, 0xBB	; 187
 1de:	f0 e0       	ldi	r31, 0x00	; 0
 1e0:	80 81       	ld	r24, Z
 1e2:	8f 70       	andi	r24, 0x0F	; 15
 1e4:	80 83       	st	Z, r24
 1e6:	84 e8       	ldi	r24, 0x84	; 132
 1e8:	80 93 bc 00 	sts	0x00BC, r24	; 0x8000bc <__TEXT_REGION_LENGTH__+0x7f80bc>
 1ec:	80 91 bc 00 	lds	r24, 0x00BC	; 0x8000bc <__TEXT_REGION_LENGTH__+0x7f80bc>
 1f0:	88 23       	and	r24, r24
 1f2:	e4 f7       	brge	.-8      	; 0x1ec <lcd_cmd+0x64>
 1f4:	eb eb       	ldi	r30, 0xBB	; 187
 1f6:	f0 e0       	ldi	r31, 0x00	; 0
 1f8:	20 81       	ld	r18, Z
 1fa:	30 e1       	ldi	r19, 0x10	; 16
 1fc:	c3 9f       	mul	r28, r19
 1fe:	c0 01       	movw	r24, r0
 200:	11 24       	eor	r1, r1
 202:	82 2b       	or	r24, r18
 204:	80 83       	st	Z, r24
 206:	84 e8       	ldi	r24, 0x84	; 132
 208:	80 93 bc 00 	sts	0x00BC, r24	; 0x8000bc <__TEXT_REGION_LENGTH__+0x7f80bc>
 20c:	80 91 bc 00 	lds	r24, 0x00BC	; 0x8000bc <__TEXT_REGION_LENGTH__+0x7f80bc>
 210:	88 23       	and	r24, r24
 212:	e4 f7       	brge	.-8      	; 0x20c <lcd_cmd+0x84>
 214:	0e 94 7f 00 	call	0xfe	; 0xfe <toggle>
 218:	cf 91       	pop	r28
 21a:	08 95       	ret

0000021c <lcd_init>:
 21c:	80 e3       	ldi	r24, 0x30	; 48
 21e:	0e 94 9c 00 	call	0x138	; 0x138 <lcd_cmd_hf>
 222:	80 e3       	ldi	r24, 0x30	; 48
 224:	0e 94 9c 00 	call	0x138	; 0x138 <lcd_cmd_hf>
 228:	80 e2       	ldi	r24, 0x20	; 32
 22a:	0e 94 9c 00 	call	0x138	; 0x138 <lcd_cmd_hf>
 22e:	88 e2       	ldi	r24, 0x28	; 40
 230:	0e 94 c4 00 	call	0x188	; 0x188 <lcd_cmd>
 234:	8c e0       	ldi	r24, 0x0C	; 12
 236:	0e 94 c4 00 	call	0x188	; 0x188 <lcd_cmd>
 23a:	81 e0       	ldi	r24, 0x01	; 1
 23c:	0e 94 c4 00 	call	0x188	; 0x188 <lcd_cmd>
 240:	86 e0       	ldi	r24, 0x06	; 6
 242:	0e 94 c4 00 	call	0x188	; 0x188 <lcd_cmd>
 246:	80 e8       	ldi	r24, 0x80	; 128
 248:	0e 94 c4 00 	call	0x188	; 0x188 <lcd_cmd>
 24c:	08 95       	ret

0000024e <lcd_dwr>:
 24e:	cf 93       	push	r28
 250:	c8 2f       	mov	r28, r24
 252:	eb eb       	ldi	r30, 0xBB	; 187
 254:	f0 e0       	ldi	r31, 0x00	; 0
 256:	80 81       	ld	r24, Z
 258:	81 60       	ori	r24, 0x01	; 1
 25a:	80 83       	st	Z, r24
 25c:	84 e8       	ldi	r24, 0x84	; 132
 25e:	80 93 bc 00 	sts	0x00BC, r24	; 0x8000bc <__TEXT_REGION_LENGTH__+0x7f80bc>
 262:	80 91 bc 00 	lds	r24, 0x00BC	; 0x8000bc <__TEXT_REGION_LENGTH__+0x7f80bc>
 266:	88 23       	and	r24, r24
 268:	e4 f7       	brge	.-8      	; 0x262 <lcd_dwr+0x14>
 26a:	eb eb       	ldi	r30, 0xBB	; 187
 26c:	f0 e0       	ldi	r31, 0x00	; 0
 26e:	80 81       	ld	r24, Z
 270:	8f 70       	andi	r24, 0x0F	; 15
 272:	80 83       	st	Z, r24
 274:	84 e8       	ldi	r24, 0x84	; 132
 276:	80 93 bc 00 	sts	0x00BC, r24	; 0x8000bc <__TEXT_REGION_LENGTH__+0x7f80bc>
 27a:	80 91 bc 00 	lds	r24, 0x00BC	; 0x8000bc <__TEXT_REGION_LENGTH__+0x7f80bc>
 27e:	88 23       	and	r24, r24
 280:	e4 f7       	brge	.-8      	; 0x27a <lcd_dwr+0x2c>
 282:	eb eb       	ldi	r30, 0xBB	; 187
 284:	f0 e0       	ldi	r31, 0x00	; 0
 286:	80 81       	ld	r24, Z
 288:	9c 2f       	mov	r25, r28
 28a:	90 7f       	andi	r25, 0xF0	; 240
 28c:	89 2b       	or	r24, r25
 28e:	80 83       	st	Z, r24
 290:	84 e8       	ldi	r24, 0x84	; 132
 292:	80 93 bc 00 	sts	0x00BC, r24	; 0x8000bc <__TEXT_REGION_LENGTH__+0x7f80bc>
 296:	80 91 bc 00 	lds	r24, 0x00BC	; 0x8000bc <__TEXT_REGION_LENGTH__+0x7f80bc>
 29a:	88 23       	and	r24, r24
 29c:	e4 f7       	brge	.-8      	; 0x296 <lcd_dwr+0x48>
 29e:	0e 94 7f 00 	call	0xfe	; 0xfe <toggle>
 2a2:	eb eb       	ldi	r30, 0xBB	; 187
 2a4:	f0 e0       	ldi	r31, 0x00	; 0
 2a6:	80 81       	ld	r24, Z
 2a8:	8f 70       	andi	r24, 0x0F	; 15
 2aa:	80 83       	st	Z, r24
 2ac:	84 e8       	ldi	r24, 0x84	; 132
 2ae:	80 93 bc 00 	sts	0x00BC, r24	; 0x8000bc <__TEXT_REGION_LENGTH__+0x7f80bc>
 2b2:	80 91 bc 00 	lds	r24, 0x00BC	; 0x8000bc <__TEXT_REGION_LENGTH__+0x7f80bc>
 2b6:	88 23       	and	r24, r24
 2b8:	e4 f7       	brge	.-8      	; 0x2b2 <lcd_dwr+0x64>
 2ba:	eb eb       	ldi	r30, 0xBB	; 187
 2bc:	f0 e0       	ldi	r31, 0x00	; 0
 2be:	20 81       	ld	r18, Z
 2c0:	30 e1       	ldi	r19, 0x10	; 16
 2c2:	c3 9f       	mul	r28, r19
 2c4:	c0 01       	movw	r24, r0
 2c6:	11 24       	eor	r1, r1
 2c8:	82 2b       	or	r24, r18
 2ca:	80 83       	st	Z, r24
 2cc:	84 e8       	ldi	r24, 0x84	; 132
 2ce:	80 93 bc 00 	sts	0x00BC, r24	; 0x8000bc <__TEXT_REGION_LENGTH__+0x7f80bc>
 2d2:	80 91 bc 00 	lds	r24, 0x00BC	; 0x8000bc <__TEXT_REGION_LENGTH__+0x7f80bc>
 2d6:	88 23       	and	r24, r24
 2d8:	e4 f7       	brge	.-8      	; 0x2d2 <lcd_dwr+0x84>
 2da:	0e 94 7f 00 	call	0xfe	; 0xfe <toggle>
 2de:	cf 91       	pop	r28
 2e0:	08 95       	ret

000002e2 <lcd_msg>:
 2e2:	cf 93       	push	r28
 2e4:	df 93       	push	r29
 2e6:	ec 01       	movw	r28, r24
 2e8:	03 c0       	rjmp	.+6      	; 0x2f0 <lcd_msg+0xe>
 2ea:	21 96       	adiw	r28, 0x01	; 1
 2ec:	0e 94 27 01 	call	0x24e	; 0x24e <lcd_dwr>
 2f0:	88 81       	ld	r24, Y
 2f2:	81 11       	cpse	r24, r1
 2f4:	fa cf       	rjmp	.-12     	; 0x2ea <lcd_msg+0x8>
 2f6:	df 91       	pop	r29
 2f8:	cf 91       	pop	r28
 2fa:	08 95       	ret

000002fc <keyfind>:
unsigned char colloc, rowloc;
char keyfind(){

	while (1)
	{
		KEY_DDR = 0xF0;           /* set port direction as input-output */
 2fc:	80 ef       	ldi	r24, 0xF0	; 240
 2fe:	84 b9       	out	0x04, r24	; 4
		KEY_PRT = 0xFF;
 300:	8f ef       	ldi	r24, 0xFF	; 255
 302:	85 b9       	out	0x05, r24	; 5

		do
		{
			KEY_PRT &= 0x0F;      /* mask PORT for column read only */
 304:	85 b1       	in	r24, 0x05	; 5
 306:	8f 70       	andi	r24, 0x0F	; 15
 308:	85 b9       	out	0x05, r24	; 5
			asm("NOP");
 30a:	00 00       	nop
			colloc = (KEY_PIN & 0x0F); /* read status of column */
 30c:	83 b1       	in	r24, 0x03	; 3
 30e:	8f 70       	andi	r24, 0x0F	; 15
 310:	80 93 a5 01 	sts	0x01A5, r24	; 0x8001a5 <colloc>
		} while (colloc != 0x0F);
 314:	8f 30       	cpi	r24, 0x0F	; 15
 316:	b1 f7       	brne	.-20     	; 0x304 <keyfind+0x8>
	#else
		//round up by default
		__ticks_dc = (uint32_t)(ceil(fabs(__tmp)));
	#endif

	__builtin_avr_delay_cycles(__ticks_dc);
 318:	2f ef       	ldi	r18, 0xFF	; 255
 31a:	89 ef       	ldi	r24, 0xF9	; 249
 31c:	90 e0       	ldi	r25, 0x00	; 0
 31e:	21 50       	subi	r18, 0x01	; 1
 320:	80 40       	sbci	r24, 0x00	; 0
 322:	90 40       	sbci	r25, 0x00	; 0
 324:	e1 f7       	brne	.-8      	; 0x31e <keyfind+0x22>
 326:	00 c0       	rjmp	.+0      	; 0x328 <keyfind+0x2c>
 328:	00 00       	nop
		do
		{
			do
			{
				_delay_ms(20);             /* 20ms key debounce time */
				colloc = (KEY_PIN & 0x0F); /* read status of column */
 32a:	83 b1       	in	r24, 0x03	; 3
 32c:	8f 70       	andi	r24, 0x0F	; 15
 32e:	80 93 a5 01 	sts	0x01A5, r24	; 0x8001a5 <colloc>
				} while (colloc == 0x0F);       /* check for any key press */
 332:	8f 30       	cpi	r24, 0x0F	; 15
 334:	89 f3       	breq	.-30     	; 0x318 <keyfind+0x1c>
 336:	2f ef       	ldi	r18, 0xFF	; 255
 338:	83 ef       	ldi	r24, 0xF3	; 243
 33a:	91 e0       	ldi	r25, 0x01	; 1
 33c:	21 50       	subi	r18, 0x01	; 1
 33e:	80 40       	sbci	r24, 0x00	; 0
 340:	90 40       	sbci	r25, 0x00	; 0
 342:	e1 f7       	brne	.-8      	; 0x33c <keyfind+0x40>
 344:	00 c0       	rjmp	.+0      	; 0x346 <keyfind+0x4a>
 346:	00 00       	nop

				_delay_ms (40);             /* 20 ms key debounce time */
				colloc = (KEY_PIN & 0x0F);
 348:	83 b1       	in	r24, 0x03	; 3
 34a:	8f 70       	andi	r24, 0x0F	; 15
 34c:	80 93 a5 01 	sts	0x01A5, r24	; 0x8001a5 <colloc>
			} while (colloc == 0x0F);
 350:	8f 30       	cpi	r24, 0x0F	; 15
 352:	11 f3       	breq	.-60     	; 0x318 <keyfind+0x1c>

			/* now check for rows */
			KEY_PRT = 0xEF;            /* check for pressed key in 1st row */
 354:	8f ee       	ldi	r24, 0xEF	; 239
 356:	85 b9       	out	0x05, r24	; 5
			asm("NOP");
 358:	00 00       	nop
			colloc = (KEY_PIN & 0x0F);
 35a:	83 b1       	in	r24, 0x03	; 3
 35c:	8f 70       	andi	r24, 0x0F	; 15
 35e:	80 93 a5 01 	sts	0x01A5, r24	; 0x8001a5 <colloc>
			if (colloc != 0x0F)
 362:	8f 30       	cpi	r24, 0x0F	; 15
 364:	19 f0       	breq	.+6      	; 0x36c <keyfind+0x70>
			{
				rowloc = 0;
 366:	10 92 a8 01 	sts	0x01A8, r1	; 0x8001a8 <rowloc>
				break;
 36a:	27 c0       	rjmp	.+78     	; 0x3ba <keyfind+0xbe>
			}

			KEY_PRT = 0xDF;   /* check for pressed key in 2nd row */
 36c:	8f ed       	ldi	r24, 0xDF	; 223
 36e:	85 b9       	out	0x05, r24	; 5
			asm("NOP");
 370:	00 00       	nop
			colloc = (KEY_PIN & 0x0F);
 372:	83 b1       	in	r24, 0x03	; 3
 374:	8f 70       	andi	r24, 0x0F	; 15
 376:	80 93 a5 01 	sts	0x01A5, r24	; 0x8001a5 <colloc>
			if (colloc != 0x0F)
 37a:	8f 30       	cpi	r24, 0x0F	; 15
 37c:	21 f0       	breq	.+8      	; 0x386 <keyfind+0x8a>
			{
				rowloc = 1;
 37e:	81 e0       	ldi	r24, 0x01	; 1
 380:	80 93 a8 01 	sts	0x01A8, r24	; 0x8001a8 <rowloc>
				break;
 384:	1a c0       	rjmp	.+52     	; 0x3ba <keyfind+0xbe>
			}

			KEY_PRT = 0xBF;   /* check for pressed key in 3rd row */
 386:	8f eb       	ldi	r24, 0xBF	; 191
 388:	85 b9       	out	0x05, r24	; 5
			asm("NOP");
 38a:	00 00       	nop
			colloc = (KEY_PIN & 0x0F);
 38c:	83 b1       	in	r24, 0x03	; 3
 38e:	8f 70       	andi	r24, 0x0F	; 15
 390:	80 93 a5 01 	sts	0x01A5, r24	; 0x8001a5 <colloc>
			if (colloc != 0x0F)
 394:	8f 30       	cpi	r24, 0x0F	; 15
 396:	21 f0       	breq	.+8      	; 0x3a0 <keyfind+0xa4>
			{
				rowloc = 2;
 398:	82 e0       	ldi	r24, 0x02	; 2
 39a:	80 93 a8 01 	sts	0x01A8, r24	; 0x8001a8 <rowloc>
				break;
 39e:	0d c0       	rjmp	.+26     	; 0x3ba <keyfind+0xbe>
			}

			KEY_PRT = 0x7F;   /* check for pressed key in 4th row */
 3a0:	8f e7       	ldi	r24, 0x7F	; 127
 3a2:	85 b9       	out	0x05, r24	; 5
			asm("NOP");
 3a4:	00 00       	nop
			colloc = (KEY_PIN & 0x0F);
 3a6:	83 b1       	in	r24, 0x03	; 3
 3a8:	8f 70       	andi	r24, 0x0F	; 15
 3aa:	80 93 a5 01 	sts	0x01A5, r24	; 0x8001a5 <colloc>
			if (colloc != 0x0F)
 3ae:	8f 30       	cpi	r24, 0x0F	; 15
 3b0:	09 f4       	brne	.+2      	; 0x3b4 <keyfind+0xb8>
 3b2:	a4 cf       	rjmp	.-184    	; 0x2fc <keyfind>
			{
				rowloc = 3;
 3b4:	83 e0       	ldi	r24, 0x03	; 3
 3b6:	80 93 a8 01 	sts	0x01A8, r24	; 0x8001a8 <rowloc>
				break;
			}
		}

		if (colloc == 0x0E) {
 3ba:	80 91 a5 01 	lds	r24, 0x01A5	; 0x8001a5 <colloc>
 3be:	8e 30       	cpi	r24, 0x0E	; 14
 3c0:	59 f4       	brne	.+22     	; 0x3d8 <keyfind+0xdc>
			return (keypad[rowloc][0]);
 3c2:	e0 91 a8 01 	lds	r30, 0x01A8	; 0x8001a8 <rowloc>
 3c6:	f0 e0       	ldi	r31, 0x00	; 0
 3c8:	ee 0f       	add	r30, r30
 3ca:	ff 1f       	adc	r31, r31
 3cc:	ee 0f       	add	r30, r30
 3ce:	ff 1f       	adc	r31, r31
 3d0:	ef 5f       	subi	r30, 0xFF	; 255
 3d2:	fe 4f       	sbci	r31, 0xFE	; 254
 3d4:	80 81       	ld	r24, Z
 3d6:	08 95       	ret
		}
		else if (colloc == 0x0D) {
 3d8:	8d 30       	cpi	r24, 0x0D	; 13
 3da:	59 f4       	brne	.+22     	; 0x3f2 <keyfind+0xf6>
			return (keypad[rowloc][1]);
 3dc:	e0 91 a8 01 	lds	r30, 0x01A8	; 0x8001a8 <rowloc>
 3e0:	f0 e0       	ldi	r31, 0x00	; 0
 3e2:	ee 0f       	add	r30, r30
 3e4:	ff 1f       	adc	r31, r31
 3e6:	ee 0f       	add	r30, r30
 3e8:	ff 1f       	adc	r31, r31
 3ea:	ef 5f       	subi	r30, 0xFF	; 255
 3ec:	fe 4f       	sbci	r31, 0xFE	; 254
 3ee:	81 81       	ldd	r24, Z+1	; 0x01
 3f0:	08 95       	ret
		}
		else if (colloc == 0x0B) {
 3f2:	8b 30       	cpi	r24, 0x0B	; 11
 3f4:	59 f4       	brne	.+22     	; 0x40c <__EEPROM_REGION_LENGTH__+0xc>
			return (keypad[rowloc][2]);
 3f6:	e0 91 a8 01 	lds	r30, 0x01A8	; 0x8001a8 <rowloc>
 3fa:	f0 e0       	ldi	r31, 0x00	; 0
 3fc:	ee 0f       	add	r30, r30
 3fe:	ff 1f       	adc	r31, r31
 400:	ee 0f       	add	r30, r30
 402:	ff 1f       	adc	r31, r31
 404:	ef 5f       	subi	r30, 0xFF	; 255
 406:	fe 4f       	sbci	r31, 0xFE	; 254
 408:	82 81       	ldd	r24, Z+2	; 0x02
 40a:	08 95       	ret
		}
		else {
			return (keypad[rowloc][3]);
 40c:	e0 91 a8 01 	lds	r30, 0x01A8	; 0x8001a8 <rowloc>
 410:	f0 e0       	ldi	r31, 0x00	; 0
 412:	ee 0f       	add	r30, r30
 414:	ff 1f       	adc	r31, r31
 416:	ee 0f       	add	r30, r30
 418:	ff 1f       	adc	r31, r31
 41a:	ef 5f       	subi	r30, 0xFF	; 255
 41c:	fe 4f       	sbci	r31, 0xFE	; 254
 41e:	83 81       	ldd	r24, Z+3	; 0x03
		}
	}
 420:	08 95       	ret

00000422 <adc_init>:
	uint16_t Red_val, Green_val, Blue_val;
	
	void adc_init()
	{

		ADMUX = (1 << REFS0) | (1 << MUX0) | (1 << MUX1);
 422:	83 e4       	ldi	r24, 0x43	; 67
 424:	80 93 7c 00 	sts	0x007C, r24	; 0x80007c <__TEXT_REGION_LENGTH__+0x7f807c>

		// ADC Enable and prescaler of 128
		// 16000000/128 = 125000
		ADCSRA = (1 << ADEN) | (1 << ADPS2) | (1 << ADPS1);
 428:	86 e8       	ldi	r24, 0x86	; 134
 42a:	80 93 7a 00 	sts	0x007A, r24	; 0x80007a <__TEXT_REGION_LENGTH__+0x7f807a>
 42e:	08 95       	ret

00000430 <adc_read>:
	uint16_t adc_read(uint8_t ch)
	{
		// select the corresponding channel 0~7
		// ANDing with ’7? will always keep the value
		// of ‘ch’ between 0 and 7
		ch &= 0b00000111;  // AND operation with 7
 430:	87 70       	andi	r24, 0x07	; 7
		ADMUX = (ADMUX & 0xF8) | ch; // clears the bottom 3 bits before ORing
 432:	ec e7       	ldi	r30, 0x7C	; 124
 434:	f0 e0       	ldi	r31, 0x00	; 0
 436:	90 81       	ld	r25, Z
 438:	98 7f       	andi	r25, 0xF8	; 248
 43a:	89 2b       	or	r24, r25
 43c:	80 83       	st	Z, r24

		// start single convertion
		// write ’1? to ADSC
		ADCSRA |= (1 << ADSC);
 43e:	ea e7       	ldi	r30, 0x7A	; 122
 440:	f0 e0       	ldi	r31, 0x00	; 0
 442:	80 81       	ld	r24, Z
 444:	80 64       	ori	r24, 0x40	; 64
 446:	80 83       	st	Z, r24

		// wait for conversion to complete
		// ADSC becomes ’0? again
		// till then, run loop continuously
		while (ADCSRA & (1 << ADSC));
 448:	80 91 7a 00 	lds	r24, 0x007A	; 0x80007a <__TEXT_REGION_LENGTH__+0x7f807a>
 44c:	86 fd       	sbrc	r24, 6
 44e:	fc cf       	rjmp	.-8      	; 0x448 <adc_read+0x18>

		return (ADC);
 450:	80 91 78 00 	lds	r24, 0x0078	; 0x800078 <__TEXT_REGION_LENGTH__+0x7f8078>
 454:	90 91 79 00 	lds	r25, 0x0079	; 0x800079 <__TEXT_REGION_LENGTH__+0x7f8079>
	}
 458:	08 95       	ret

0000045a <get_3_digit>:
	
	//function for get 3 digit from keypad
	char* get_3_digit() {
 45a:	cf 92       	push	r12
 45c:	df 92       	push	r13
 45e:	ef 92       	push	r14
 460:	ff 92       	push	r15
 462:	0f 93       	push	r16
 464:	1f 93       	push	r17
 466:	cf 93       	push	r28
 468:	df 93       	push	r29
 46a:	00 d0       	rcall	.+0      	; 0x46c <get_3_digit+0x12>
 46c:	00 d0       	rcall	.+0      	; 0x46e <get_3_digit+0x14>
 46e:	cd b7       	in	r28, 0x3d	; 61
 470:	de b7       	in	r29, 0x3e	; 62
		int count = 0;
 472:	e1 2c       	mov	r14, r1
 474:	f1 2c       	mov	r15, r1
		char* val;

		while (count < 3) {
 476:	17 c0       	rjmp	.+46     	; 0x4a6 <get_3_digit+0x4c>
			char digit = keyfind();
 478:	0e 94 7e 01 	call	0x2fc	; 0x2fc <keyfind>
 47c:	08 2f       	mov	r16, r24
			if (digit) {
 47e:	88 23       	and	r24, r24
 480:	91 f0       	breq	.+36     	; 0x4a6 <get_3_digit+0x4c>

				lcd_cmd(0xC9 + count);
 482:	89 ec       	ldi	r24, 0xC9	; 201
 484:	8e 0d       	add	r24, r14
 486:	0e 94 c4 00 	call	0x188	; 0x188 <lcd_cmd>
				//lcd_msg("hey");
				char* str_digit[2];
				str_digit[0] = digit;
 48a:	10 e0       	ldi	r17, 0x00	; 0
 48c:	1a 83       	std	Y+2, r17	; 0x02
 48e:	09 83       	std	Y+1, r16	; 0x01
				str_digit[1] = '\0';
 490:	1c 82       	std	Y+4, r1	; 0x04
 492:	1b 82       	std	Y+3, r1	; 0x03
				lcd_msg(str_digit);
 494:	ce 01       	movw	r24, r28
 496:	01 96       	adiw	r24, 0x01	; 1
 498:	0e 94 71 01 	call	0x2e2	; 0x2e2 <lcd_msg>
				val += digit;
 49c:	c0 0e       	add	r12, r16
 49e:	d1 1e       	adc	r13, r17
				count += 1;
 4a0:	8f ef       	ldi	r24, 0xFF	; 255
 4a2:	e8 1a       	sub	r14, r24
 4a4:	f8 0a       	sbc	r15, r24
	//function for get 3 digit from keypad
	char* get_3_digit() {
		int count = 0;
		char* val;

		while (count < 3) {
 4a6:	83 e0       	ldi	r24, 0x03	; 3
 4a8:	e8 16       	cp	r14, r24
 4aa:	f1 04       	cpc	r15, r1
 4ac:	2c f3       	brlt	.-54     	; 0x478 <get_3_digit+0x1e>
				val += digit;
				count += 1;
			}
		}
		return val;
	}
 4ae:	c6 01       	movw	r24, r12
 4b0:	0f 90       	pop	r0
 4b2:	0f 90       	pop	r0
 4b4:	0f 90       	pop	r0
 4b6:	0f 90       	pop	r0
 4b8:	df 91       	pop	r29
 4ba:	cf 91       	pop	r28
 4bc:	1f 91       	pop	r17
 4be:	0f 91       	pop	r16
 4c0:	ff 90       	pop	r15
 4c2:	ef 90       	pop	r14
 4c4:	df 90       	pop	r13
 4c6:	cf 90       	pop	r12
 4c8:	08 95       	ret

000004ca <get_3_int_digits>:
	
	//function for get 3 digits from keypad in the form of integers
	int get_3_int_digits() {
 4ca:	af 92       	push	r10
 4cc:	bf 92       	push	r11
 4ce:	cf 92       	push	r12
 4d0:	df 92       	push	r13
 4d2:	ef 92       	push	r14
 4d4:	ff 92       	push	r15
 4d6:	0f 93       	push	r16
 4d8:	1f 93       	push	r17
 4da:	cf 93       	push	r28
 4dc:	df 93       	push	r29
 4de:	00 d0       	rcall	.+0      	; 0x4e0 <get_3_int_digits+0x16>
 4e0:	cd b7       	in	r28, 0x3d	; 61
 4e2:	de b7       	in	r29, 0x3e	; 62
		int count = 0;
		int val=0;
 4e4:	a1 2c       	mov	r10, r1
 4e6:	b1 2c       	mov	r11, r1
		return val;
	}
	
	//function for get 3 digits from keypad in the form of integers
	int get_3_int_digits() {
		int count = 0;
 4e8:	e1 2c       	mov	r14, r1
 4ea:	f1 2c       	mov	r15, r1
		int val=0;

		while (count < 3) {
 4ec:	29 c0       	rjmp	.+82     	; 0x540 <get_3_int_digits+0x76>
			char digit = keyfind();
 4ee:	0e 94 7e 01 	call	0x2fc	; 0x2fc <keyfind>
			int num=digit-'0';
 4f2:	c8 2e       	mov	r12, r24
 4f4:	d1 2c       	mov	r13, r1
 4f6:	86 01       	movw	r16, r12
 4f8:	00 53       	subi	r16, 0x30	; 48
 4fa:	11 09       	sbc	r17, r1
			lcd_cmd(0xC9 + count);
 4fc:	89 ec       	ldi	r24, 0xC9	; 201
 4fe:	8e 0d       	add	r24, r14
 500:	0e 94 c4 00 	call	0x188	; 0x188 <lcd_cmd>
			char* str_digit[1];
			str_digit[0] = digit;
 504:	da 82       	std	Y+2, r13	; 0x02
 506:	c9 82       	std	Y+1, r12	; 0x01
			lcd_msg(str_digit);
 508:	ce 01       	movw	r24, r28
 50a:	01 96       	adiw	r24, 0x01	; 1
 50c:	0e 94 71 01 	call	0x2e2	; 0x2e2 <lcd_msg>
			if(count == 2){
 510:	82 e0       	ldi	r24, 0x02	; 2
 512:	e8 16       	cp	r14, r24
 514:	f1 04       	cpc	r15, r1
 516:	19 f4       	brne	.+6      	; 0x51e <get_3_int_digits+0x54>
				val += num;
 518:	a0 0e       	add	r10, r16
 51a:	b1 1e       	adc	r11, r17
 51c:	0e c0       	rjmp	.+28     	; 0x53a <get_3_int_digits+0x70>
			}
			else{
				val = (val + num) * 10;
 51e:	c5 01       	movw	r24, r10
 520:	80 0f       	add	r24, r16
 522:	91 1f       	adc	r25, r17
 524:	5c 01       	movw	r10, r24
 526:	aa 0c       	add	r10, r10
 528:	bb 1c       	adc	r11, r11
 52a:	88 0f       	add	r24, r24
 52c:	99 1f       	adc	r25, r25
 52e:	88 0f       	add	r24, r24
 530:	99 1f       	adc	r25, r25
 532:	88 0f       	add	r24, r24
 534:	99 1f       	adc	r25, r25
 536:	a8 0e       	add	r10, r24
 538:	b9 1e       	adc	r11, r25
			}
			count += 1;
 53a:	8f ef       	ldi	r24, 0xFF	; 255
 53c:	e8 1a       	sub	r14, r24
 53e:	f8 0a       	sbc	r15, r24
	//function for get 3 digits from keypad in the form of integers
	int get_3_int_digits() {
		int count = 0;
		int val=0;

		while (count < 3) {
 540:	83 e0       	ldi	r24, 0x03	; 3
 542:	e8 16       	cp	r14, r24
 544:	f1 04       	cpc	r15, r1
 546:	9c f2       	brlt	.-90     	; 0x4ee <get_3_int_digits+0x24>
			}
			count += 1;
			
		}
		return val;
	}
 548:	c5 01       	movw	r24, r10
 54a:	0f 90       	pop	r0
 54c:	0f 90       	pop	r0
 54e:	df 91       	pop	r29
 550:	cf 91       	pop	r28
 552:	1f 91       	pop	r17
 554:	0f 91       	pop	r16
 556:	ff 90       	pop	r15
 558:	ef 90       	pop	r14
 55a:	df 90       	pop	r13
 55c:	cf 90       	pop	r12
 55e:	bf 90       	pop	r11
 560:	af 90       	pop	r10
 562:	08 95       	ret

00000564 <displayWrite>:
	// function for display details on lcd display
	char* displayWrite(char* clr_mode, char* clr ) {
 564:	ef 92       	push	r14
 566:	ff 92       	push	r15
 568:	0f 93       	push	r16
 56a:	1f 93       	push	r17
 56c:	cf 93       	push	r28
 56e:	df 93       	push	r29
 570:	7c 01       	movw	r14, r24
 572:	8b 01       	movw	r16, r22
		lcd_init();
 574:	0e 94 0e 01 	call	0x21c	; 0x21c <lcd_init>
		lcd_cmd(0xC0);
 578:	80 ec       	ldi	r24, 0xC0	; 192
 57a:	0e 94 c4 00 	call	0x188	; 0x188 <lcd_cmd>
		lcd_msg(clr_mode);
 57e:	c7 01       	movw	r24, r14
 580:	0e 94 71 01 	call	0x2e2	; 0x2e2 <lcd_msg>
		lcd_cmd(0xC7);
 584:	87 ec       	ldi	r24, 0xC7	; 199
 586:	0e 94 c4 00 	call	0x188	; 0x188 <lcd_cmd>
		lcd_msg(clr);
 58a:	c8 01       	movw	r24, r16
 58c:	0e 94 71 01 	call	0x2e2	; 0x2e2 <lcd_msg>
		lcd_cmd(0x80);
 590:	80 e8       	ldi	r24, 0x80	; 128
 592:	0e 94 c4 00 	call	0x188	; 0x188 <lcd_cmd>
		lcd_msg("- clear");
 596:	81 e1       	ldi	r24, 0x11	; 17
 598:	91 e0       	ldi	r25, 0x01	; 1
 59a:	0e 94 71 01 	call	0x2e2	; 0x2e2 <lcd_msg>
		lcd_cmd(0x89);
 59e:	89 e8       	ldi	r24, 0x89	; 137
 5a0:	0e 94 c4 00 	call	0x188	; 0x188 <lcd_cmd>
		lcd_msg("Enter +");
 5a4:	89 e1       	ldi	r24, 0x19	; 25
 5a6:	91 e0       	ldi	r25, 0x01	; 1
 5a8:	0e 94 71 01 	call	0x2e2	; 0x2e2 <lcd_msg>
		char* val = get_3_digit();
 5ac:	0e 94 2d 02 	call	0x45a	; 0x45a <get_3_digit>
 5b0:	ec 01       	movw	r28, r24

		if (val) {
 5b2:	89 2b       	or	r24, r25
 5b4:	51 f4       	brne	.+20     	; 0x5ca <displayWrite+0x66>
 5b6:	0e c0       	rjmp	.+28     	; 0x5d4 <displayWrite+0x70>
			_Bool flag1 = true;
			while (flag1) {

				char stat = keyfind();
				if (stat == '+') {
					return  val;
 5b8:	8c 2f       	mov	r24, r28
 5ba:	9d 2f       	mov	r25, r29
 5bc:	0b c0       	rjmp	.+22     	; 0x5d4 <displayWrite+0x70>
				}
				else if (stat == '-') {
 5be:	8d 32       	cpi	r24, 0x2D	; 45
 5c0:	21 f4       	brne	.+8      	; 0x5ca <displayWrite+0x66>
					displayWrite(clr_mode, clr );
 5c2:	b8 01       	movw	r22, r16
 5c4:	c7 01       	movw	r24, r14
 5c6:	0e 94 b2 02 	call	0x564	; 0x564 <displayWrite>
		if (val) {

			_Bool flag1 = true;
			while (flag1) {

				char stat = keyfind();
 5ca:	0e 94 7e 01 	call	0x2fc	; 0x2fc <keyfind>
				if (stat == '+') {
 5ce:	8b 32       	cpi	r24, 0x2B	; 43
 5d0:	b1 f7       	brne	.-20     	; 0x5be <displayWrite+0x5a>
 5d2:	f2 cf       	rjmp	.-28     	; 0x5b8 <displayWrite+0x54>
				else if (stat == '-') {
					displayWrite(clr_mode, clr );
				}
			}
		}
	}
 5d4:	df 91       	pop	r29
 5d6:	cf 91       	pop	r28
 5d8:	1f 91       	pop	r17
 5da:	0f 91       	pop	r16
 5dc:	ff 90       	pop	r15
 5de:	ef 90       	pop	r14
 5e0:	08 95       	ret

000005e2 <RGB_off>:
	void RGB_off(){
		DDRC &= ~(1<<PORTC0 | 1<<PORTC1 | 1<<PORTC2);
 5e2:	87 b1       	in	r24, 0x07	; 7
 5e4:	88 7f       	andi	r24, 0xF8	; 248
 5e6:	87 b9       	out	0x07, r24	; 7
 5e8:	08 95       	ret

000005ea <pwm>:
	}
	
	void pwm(int pin,int num){
 5ea:	9c 01       	movw	r18, r24
		TCCR0B |= (1<<CS00)|(1<<CS01);//prescalar /64
 5ec:	95 b5       	in	r25, 0x25	; 37
 5ee:	93 60       	ori	r25, 0x03	; 3
 5f0:	95 bd       	out	0x25, r25	; 37
		TCCR2B |= (1<<CS20)|(1<<CS21);//prescalar /64
 5f2:	e1 eb       	ldi	r30, 0xB1	; 177
 5f4:	f0 e0       	ldi	r31, 0x00	; 0
 5f6:	90 81       	ld	r25, Z
 5f8:	93 60       	ori	r25, 0x03	; 3
 5fa:	90 83       	st	Z, r25
		switch(pin){
 5fc:	21 30       	cpi	r18, 0x01	; 1
 5fe:	31 05       	cpc	r19, r1
 600:	69 f0       	breq	.+26     	; 0x61c <pwm+0x32>
 602:	22 30       	cpi	r18, 0x02	; 2
 604:	31 05       	cpc	r19, r1
 606:	91 f0       	breq	.+36     	; 0x62c <pwm+0x42>
 608:	23 2b       	or	r18, r19
 60a:	d1 f4       	brne	.+52     	; 0x640 <pwm+0x56>
			case 0:
			TCCR0A |= (1<<WGM01)|(1<<WGM00)|(1<<COM0A1);//fast pwm, non inverted
 60c:	84 b5       	in	r24, 0x24	; 36
 60e:	83 68       	ori	r24, 0x83	; 131
 610:	84 bd       	out	0x24, r24	; 36
			DDRD |= (1<<PORTD6); //set the direction
 612:	8a b1       	in	r24, 0x0a	; 10
 614:	80 64       	ori	r24, 0x40	; 64
 616:	8a b9       	out	0x0a, r24	; 10
			OCR0A=num;
 618:	67 bd       	out	0x27, r22	; 39
			break;
 61a:	08 95       	ret
			case 1:
			TCCR0A |= (1<<WGM01)|(1<<WGM00)|(1<<COM0B1);//fast pwm, non inverted
 61c:	84 b5       	in	r24, 0x24	; 36
 61e:	83 62       	ori	r24, 0x23	; 35
 620:	84 bd       	out	0x24, r24	; 36
			DDRD |= (1<<PORTD5);
 622:	8a b1       	in	r24, 0x0a	; 10
 624:	80 62       	ori	r24, 0x20	; 32
 626:	8a b9       	out	0x0a, r24	; 10
			OCR0B=num;
 628:	68 bd       	out	0x28, r22	; 40
			break;
 62a:	08 95       	ret
			case 2:
			TCCR2A |= (1<<WGM21)|(1<<WGM20)|(1<<COM2B1);//fast pwm, non inverted
 62c:	e0 eb       	ldi	r30, 0xB0	; 176
 62e:	f0 e0       	ldi	r31, 0x00	; 0
 630:	80 81       	ld	r24, Z
 632:	83 62       	ori	r24, 0x23	; 35
 634:	80 83       	st	Z, r24
			DDRD |= (1<<PORTD3);
 636:	8a b1       	in	r24, 0x0a	; 10
 638:	88 60       	ori	r24, 0x08	; 8
 63a:	8a b9       	out	0x0a, r24	; 10
			OCR2B=num;
 63c:	60 93 b4 00 	sts	0x00B4, r22	; 0x8000b4 <__TEXT_REGION_LENGTH__+0x7f80b4>
 640:	08 95       	ret

00000642 <main>:
		}
	}



	int main(void){
 642:	cf 93       	push	r28
 644:	df 93       	push	r29
 646:	cd b7       	in	r28, 0x3d	; 61
 648:	de b7       	in	r29, 0x3e	; 62
 64a:	e3 97       	sbiw	r28, 0x33	; 51
 64c:	0f b6       	in	r0, 0x3f	; 63
 64e:	f8 94       	cli
 650:	de bf       	out	0x3e, r29	; 62
 652:	0f be       	out	0x3f, r0	; 63
 654:	cd bf       	out	0x3d, r28	; 61
		i2c_init();
 656:	0e 94 53 00 	call	0xa6	; 0xa6 <i2c_init>
		i2c_start();
 65a:	0e 94 5c 00 	call	0xb8	; 0xb8 <i2c_start>
		i2c_write(0x70);
 65e:	80 e7       	ldi	r24, 0x70	; 112
 660:	0e 94 64 00 	call	0xc8	; 0xc8 <i2c_write>
		lcd_init();
 664:	0e 94 0e 01 	call	0x21c	; 0x21c <lcd_init>
		lcd_cmd(0x80); lcd_msg("mode 1");
 668:	80 e8       	ldi	r24, 0x80	; 128
 66a:	0e 94 c4 00 	call	0x188	; 0x188 <lcd_cmd>
 66e:	81 e2       	ldi	r24, 0x21	; 33
 670:	91 e0       	ldi	r25, 0x01	; 1
 672:	0e 94 71 01 	call	0x2e2	; 0x2e2 <lcd_msg>
		lcd_cmd(0x88); lcd_msg("mode 2");
 676:	88 e8       	ldi	r24, 0x88	; 136
 678:	0e 94 c4 00 	call	0x188	; 0x188 <lcd_cmd>
 67c:	88 e2       	ldi	r24, 0x28	; 40
 67e:	91 e0       	ldi	r25, 0x01	; 1
 680:	0e 94 71 01 	call	0x2e2	; 0x2e2 <lcd_msg>
		lcd_cmd(0xc5); lcd_msg("mode 3");
 684:	85 ec       	ldi	r24, 0xC5	; 197
 686:	0e 94 c4 00 	call	0x188	; 0x188 <lcd_cmd>
 68a:	8f e2       	ldi	r24, 0x2F	; 47
 68c:	91 e0       	ldi	r25, 0x01	; 1
 68e:	0e 94 71 01 	call	0x2e2	; 0x2e2 <lcd_msg>

		DDRC = 0b00000111;
 692:	87 e0       	ldi	r24, 0x07	; 7
 694:	87 b9       	out	0x07, r24	; 7

		adc_init();
 696:	0e 94 11 02 	call	0x422	; 0x422 <adc_init>

		while (1)

		{
			//mode selection
			char mode = keyfind();
 69a:	0e 94 7e 01 	call	0x2fc	; 0x2fc <keyfind>
 69e:	18 2f       	mov	r17, r24
			if (mode == '1') { //mode 1 - calibration mode
 6a0:	81 33       	cpi	r24, 0x31	; 49
 6a2:	09 f0       	breq	.+2      	; 0x6a6 <main+0x64>
 6a4:	5d c0       	rjmp	.+186    	; 0x760 <main+0x11e>
				RGB_off();
 6a6:	0e 94 f1 02 	call	0x5e2	; 0x5e2 <RGB_off>
				Red_b = displayWrite("Min", "R-");
 6aa:	66 e3       	ldi	r22, 0x36	; 54
 6ac:	71 e0       	ldi	r23, 0x01	; 1
 6ae:	89 e3       	ldi	r24, 0x39	; 57
 6b0:	91 e0       	ldi	r25, 0x01	; 1
 6b2:	0e 94 b2 02 	call	0x564	; 0x564 <displayWrite>
 6b6:	90 93 aa 01 	sts	0x01AA, r25	; 0x8001aa <Red_b+0x1>
 6ba:	80 93 a9 01 	sts	0x01A9, r24	; 0x8001a9 <Red_b>
				if (Red_b) {
 6be:	89 2b       	or	r24, r25
 6c0:	09 f4       	brne	.+2      	; 0x6c4 <main+0x82>
 6c2:	4e c0       	rjmp	.+156    	; 0x760 <main+0x11e>
					Green_b = displayWrite("Min", "G-");
 6c4:	6d e3       	ldi	r22, 0x3D	; 61
 6c6:	71 e0       	ldi	r23, 0x01	; 1
 6c8:	89 e3       	ldi	r24, 0x39	; 57
 6ca:	91 e0       	ldi	r25, 0x01	; 1
 6cc:	0e 94 b2 02 	call	0x564	; 0x564 <displayWrite>
 6d0:	80 93 ab 01 	sts	0x01AB, r24	; 0x8001ab <Green_b>
					if (Green_b) {
 6d4:	88 23       	and	r24, r24
 6d6:	09 f4       	brne	.+2      	; 0x6da <main+0x98>
 6d8:	43 c0       	rjmp	.+134    	; 0x760 <main+0x11e>
						Blue_b = displayWrite("Min", "B-");
 6da:	60 e4       	ldi	r22, 0x40	; 64
 6dc:	71 e0       	ldi	r23, 0x01	; 1
 6de:	89 e3       	ldi	r24, 0x39	; 57
 6e0:	91 e0       	ldi	r25, 0x01	; 1
 6e2:	0e 94 b2 02 	call	0x564	; 0x564 <displayWrite>
 6e6:	80 93 a0 01 	sts	0x01A0, r24	; 0x8001a0 <__data_end>
						if (Blue_b) {
 6ea:	88 23       	and	r24, r24
 6ec:	c9 f1       	breq	.+114    	; 0x760 <main+0x11e>
							Red_w = displayWrite("Max", "R-");
 6ee:	66 e3       	ldi	r22, 0x36	; 54
 6f0:	71 e0       	ldi	r23, 0x01	; 1
 6f2:	83 e4       	ldi	r24, 0x43	; 67
 6f4:	91 e0       	ldi	r25, 0x01	; 1
 6f6:	0e 94 b2 02 	call	0x564	; 0x564 <displayWrite>
 6fa:	80 93 ac 01 	sts	0x01AC, r24	; 0x8001ac <Red_w>
							if (Red_w) {
 6fe:	88 23       	and	r24, r24
 700:	79 f1       	breq	.+94     	; 0x760 <main+0x11e>
								Green_w = displayWrite("Max", "G-");
 702:	6d e3       	ldi	r22, 0x3D	; 61
 704:	71 e0       	ldi	r23, 0x01	; 1
 706:	83 e4       	ldi	r24, 0x43	; 67
 708:	91 e0       	ldi	r25, 0x01	; 1
 70a:	0e 94 b2 02 	call	0x564	; 0x564 <displayWrite>
 70e:	80 93 ad 01 	sts	0x01AD, r24	; 0x8001ad <Green_w>
								if (Green_w) {
 712:	88 23       	and	r24, r24
 714:	29 f1       	breq	.+74     	; 0x760 <main+0x11e>
									Blue_w = displayWrite("Max", "B-");
 716:	60 e4       	ldi	r22, 0x40	; 64
 718:	71 e0       	ldi	r23, 0x01	; 1
 71a:	83 e4       	ldi	r24, 0x43	; 67
 71c:	91 e0       	ldi	r25, 0x01	; 1
 71e:	0e 94 b2 02 	call	0x564	; 0x564 <displayWrite>
 722:	80 93 ae 01 	sts	0x01AE, r24	; 0x8001ae <Blue_w>
									if (Blue_w) {
 726:	88 23       	and	r24, r24
 728:	d9 f0       	breq	.+54     	; 0x760 <main+0x11e>
										_Bool flag = false;
										_Bool calibrated = true;
										lcd_init();
 72a:	0e 94 0e 01 	call	0x21c	; 0x21c <lcd_init>
										lcd_cmd(0x82);
 72e:	82 e8       	ldi	r24, 0x82	; 130
 730:	0e 94 c4 00 	call	0x188	; 0x188 <lcd_cmd>
										lcd_msg("Calibration");
 734:	87 e4       	ldi	r24, 0x47	; 71
 736:	91 e0       	ldi	r25, 0x01	; 1
 738:	0e 94 71 01 	call	0x2e2	; 0x2e2 <lcd_msg>
										lcd_cmd(0xC6);
 73c:	86 ec       	ldi	r24, 0xC6	; 198
 73e:	0e 94 c4 00 	call	0x188	; 0x188 <lcd_cmd>
										lcd_msg("Done!");
 742:	83 e5       	ldi	r24, 0x53	; 83
 744:	91 e0       	ldi	r25, 0x01	; 1
 746:	0e 94 71 01 	call	0x2e2	; 0x2e2 <lcd_msg>
 74a:	2f ef       	ldi	r18, 0xFF	; 255
 74c:	83 ed       	ldi	r24, 0xD3	; 211
 74e:	90 e3       	ldi	r25, 0x30	; 48
 750:	21 50       	subi	r18, 0x01	; 1
 752:	80 40       	sbci	r24, 0x00	; 0
 754:	90 40       	sbci	r25, 0x00	; 0
 756:	e1 f7       	brne	.-8      	; 0x750 <main+0x10e>
 758:	00 c0       	rjmp	.+0      	; 0x75a <main+0x118>
 75a:	00 00       	nop
										_delay_ms(1000);
										main();
 75c:	0e 94 21 03 	call	0x642	; 0x642 <main>
						}

					}
				}
			}
			if (mode == '2') { //mode 2 - sensoring mode
 760:	12 33       	cpi	r17, 0x32	; 50
 762:	09 f0       	breq	.+2      	; 0x766 <main+0x124>
 764:	96 c0       	rjmp	.+300    	; 0x892 <__DATA_REGION_LENGTH__+0x92>
				lcd_init();
 766:	0e 94 0e 01 	call	0x21c	; 0x21c <lcd_init>
				while (1) {
					
					PORTC ^= (1 << Red); _delay_ms(500); Red_val = adc_read(pin); PORTC ^= (1 << Red); //light up red bulb
 76a:	88 b1       	in	r24, 0x08	; 8
 76c:	11 e0       	ldi	r17, 0x01	; 1
 76e:	81 27       	eor	r24, r17
 770:	88 b9       	out	0x08, r24	; 8
 772:	2f ef       	ldi	r18, 0xFF	; 255
 774:	89 e6       	ldi	r24, 0x69	; 105
 776:	98 e1       	ldi	r25, 0x18	; 24
 778:	21 50       	subi	r18, 0x01	; 1
 77a:	80 40       	sbci	r24, 0x00	; 0
 77c:	90 40       	sbci	r25, 0x00	; 0
 77e:	e1 f7       	brne	.-8      	; 0x778 <main+0x136>
 780:	00 c0       	rjmp	.+0      	; 0x782 <main+0x140>
 782:	00 00       	nop
 784:	80 91 00 01 	lds	r24, 0x0100	; 0x800100 <__DATA_REGION_ORIGIN__>
 788:	0e 94 18 02 	call	0x430	; 0x430 <adc_read>
 78c:	90 93 a7 01 	sts	0x01A7, r25	; 0x8001a7 <Red_val+0x1>
 790:	80 93 a6 01 	sts	0x01A6, r24	; 0x8001a6 <Red_val>
 794:	88 b1       	in	r24, 0x08	; 8
 796:	18 27       	eor	r17, r24
 798:	18 b9       	out	0x08, r17	; 8
					PORTC ^= (1 << Green); _delay_ms(500); Green_val = adc_read(pin); PORTC ^= (1 << Green); //light up green bulb
 79a:	88 b1       	in	r24, 0x08	; 8
 79c:	12 e0       	ldi	r17, 0x02	; 2
 79e:	81 27       	eor	r24, r17
 7a0:	88 b9       	out	0x08, r24	; 8
 7a2:	2f ef       	ldi	r18, 0xFF	; 255
 7a4:	89 e6       	ldi	r24, 0x69	; 105
 7a6:	98 e1       	ldi	r25, 0x18	; 24
 7a8:	21 50       	subi	r18, 0x01	; 1
 7aa:	80 40       	sbci	r24, 0x00	; 0
 7ac:	90 40       	sbci	r25, 0x00	; 0
 7ae:	e1 f7       	brne	.-8      	; 0x7a8 <main+0x166>
 7b0:	00 c0       	rjmp	.+0      	; 0x7b2 <main+0x170>
 7b2:	00 00       	nop
 7b4:	80 91 00 01 	lds	r24, 0x0100	; 0x800100 <__DATA_REGION_ORIGIN__>
 7b8:	0e 94 18 02 	call	0x430	; 0x430 <adc_read>
 7bc:	90 93 a2 01 	sts	0x01A2, r25	; 0x8001a2 <Green_val+0x1>
 7c0:	80 93 a1 01 	sts	0x01A1, r24	; 0x8001a1 <Green_val>
 7c4:	88 b1       	in	r24, 0x08	; 8
 7c6:	18 27       	eor	r17, r24
 7c8:	18 b9       	out	0x08, r17	; 8
					PORTC ^= (1 << Blue); _delay_ms(500); Blue_val = adc_read(pin); PORTC ^= (1 << Blue);   //light up blue bulb
 7ca:	88 b1       	in	r24, 0x08	; 8
 7cc:	14 e0       	ldi	r17, 0x04	; 4
 7ce:	81 27       	eor	r24, r17
 7d0:	88 b9       	out	0x08, r24	; 8
 7d2:	2f ef       	ldi	r18, 0xFF	; 255
 7d4:	89 e6       	ldi	r24, 0x69	; 105
 7d6:	98 e1       	ldi	r25, 0x18	; 24
 7d8:	21 50       	subi	r18, 0x01	; 1
 7da:	80 40       	sbci	r24, 0x00	; 0
 7dc:	90 40       	sbci	r25, 0x00	; 0
 7de:	e1 f7       	brne	.-8      	; 0x7d8 <main+0x196>
 7e0:	00 c0       	rjmp	.+0      	; 0x7e2 <main+0x1a0>
 7e2:	00 00       	nop
 7e4:	80 91 00 01 	lds	r24, 0x0100	; 0x800100 <__DATA_REGION_ORIGIN__>
 7e8:	0e 94 18 02 	call	0x430	; 0x430 <adc_read>
 7ec:	90 93 a4 01 	sts	0x01A4, r25	; 0x8001a4 <Blue_val+0x1>
 7f0:	80 93 a3 01 	sts	0x01A3, r24	; 0x8001a3 <Blue_val>
 7f4:	88 b1       	in	r24, 0x08	; 8
 7f6:	18 27       	eor	r17, r24
 7f8:	18 b9       	out	0x08, r17	; 8
					// convert uint16 to string
					char str_red [sizeof(Red_val) * 8 + 1];
					char str_green [sizeof(Green_val) * 8 + 1];
					char str_Blue [sizeof(Blue_val) * 8 + 1];

					lcd_cmd(0x80);
 7fa:	80 e8       	ldi	r24, 0x80	; 128
 7fc:	0e 94 c4 00 	call	0x188	; 0x188 <lcd_cmd>
					utoa(Red_val, str_red, 10);
 800:	4a e0       	ldi	r20, 0x0A	; 10
 802:	50 e0       	ldi	r21, 0x00	; 0
 804:	be 01       	movw	r22, r28
 806:	6d 5d       	subi	r22, 0xDD	; 221
 808:	7f 4f       	sbci	r23, 0xFF	; 255
 80a:	80 91 a6 01 	lds	r24, 0x01A6	; 0x8001a6 <Red_val>
 80e:	90 91 a7 01 	lds	r25, 0x01A7	; 0x8001a7 <Red_val+0x1>
 812:	0e 94 c7 04 	call	0x98e	; 0x98e <utoa>
					lcd_msg("R:"); lcd_cmd(0x83); lcd_msg(str_red);
 816:	89 e5       	ldi	r24, 0x59	; 89
 818:	91 e0       	ldi	r25, 0x01	; 1
 81a:	0e 94 71 01 	call	0x2e2	; 0x2e2 <lcd_msg>
 81e:	83 e8       	ldi	r24, 0x83	; 131
 820:	0e 94 c4 00 	call	0x188	; 0x188 <lcd_cmd>
 824:	ce 01       	movw	r24, r28
 826:	83 96       	adiw	r24, 0x23	; 35
 828:	0e 94 71 01 	call	0x2e2	; 0x2e2 <lcd_msg>
					utoa(Green_val, str_green, 10);
 82c:	4a e0       	ldi	r20, 0x0A	; 10
 82e:	50 e0       	ldi	r21, 0x00	; 0
 830:	be 01       	movw	r22, r28
 832:	6e 5e       	subi	r22, 0xEE	; 238
 834:	7f 4f       	sbci	r23, 0xFF	; 255
 836:	80 91 a1 01 	lds	r24, 0x01A1	; 0x8001a1 <Green_val>
 83a:	90 91 a2 01 	lds	r25, 0x01A2	; 0x8001a2 <Green_val+0x1>
 83e:	0e 94 c7 04 	call	0x98e	; 0x98e <utoa>
					lcd_cmd(0x88); lcd_msg("G:"); lcd_cmd(0x8B); lcd_msg(str_green);
 842:	88 e8       	ldi	r24, 0x88	; 136
 844:	0e 94 c4 00 	call	0x188	; 0x188 <lcd_cmd>
 848:	8c e5       	ldi	r24, 0x5C	; 92
 84a:	91 e0       	ldi	r25, 0x01	; 1
 84c:	0e 94 71 01 	call	0x2e2	; 0x2e2 <lcd_msg>
 850:	8b e8       	ldi	r24, 0x8B	; 139
 852:	0e 94 c4 00 	call	0x188	; 0x188 <lcd_cmd>
 856:	ce 01       	movw	r24, r28
 858:	42 96       	adiw	r24, 0x12	; 18
 85a:	0e 94 71 01 	call	0x2e2	; 0x2e2 <lcd_msg>
					utoa(Blue_val, str_Blue, 10);
 85e:	4a e0       	ldi	r20, 0x0A	; 10
 860:	50 e0       	ldi	r21, 0x00	; 0
 862:	be 01       	movw	r22, r28
 864:	6f 5f       	subi	r22, 0xFF	; 255
 866:	7f 4f       	sbci	r23, 0xFF	; 255
 868:	80 91 a3 01 	lds	r24, 0x01A3	; 0x8001a3 <Blue_val>
 86c:	90 91 a4 01 	lds	r25, 0x01A4	; 0x8001a4 <Blue_val+0x1>
 870:	0e 94 c7 04 	call	0x98e	; 0x98e <utoa>
					lcd_cmd(0xC6); lcd_msg("B:"); lcd_cmd(0xCA); lcd_msg(str_Blue);
 874:	86 ec       	ldi	r24, 0xC6	; 198
 876:	0e 94 c4 00 	call	0x188	; 0x188 <lcd_cmd>
 87a:	8f e5       	ldi	r24, 0x5F	; 95
 87c:	91 e0       	ldi	r25, 0x01	; 1
 87e:	0e 94 71 01 	call	0x2e2	; 0x2e2 <lcd_msg>
 882:	8a ec       	ldi	r24, 0xCA	; 202
 884:	0e 94 c4 00 	call	0x188	; 0x188 <lcd_cmd>
 888:	ce 01       	movw	r24, r28
 88a:	01 96       	adiw	r24, 0x01	; 1
 88c:	0e 94 71 01 	call	0x2e2	; 0x2e2 <lcd_msg>
 890:	6c cf       	rjmp	.-296    	; 0x76a <main+0x128>
				}
			}
			if (mode == '3') { //mode 3 - light up RGB led for given R,G,B values
 892:	13 33       	cpi	r17, 0x33	; 51
 894:	09 f0       	breq	.+2      	; 0x898 <__DATA_REGION_LENGTH__+0x98>
 896:	01 cf       	rjmp	.-510    	; 0x69a <main+0x58>
				lcd_init();
 898:	0e 94 0e 01 	call	0x21c	; 0x21c <lcd_init>
				lcd_cmd(0x80);
 89c:	80 e8       	ldi	r24, 0x80	; 128
 89e:	0e 94 c4 00 	call	0x188	; 0x188 <lcd_cmd>
				lcd_msg("mode 3 selected");
 8a2:	82 e6       	ldi	r24, 0x62	; 98
 8a4:	91 e0       	ldi	r25, 0x01	; 1
 8a6:	0e 94 71 01 	call	0x2e2	; 0x2e2 <lcd_msg>
 8aa:	2f ef       	ldi	r18, 0xFF	; 255
 8ac:	83 ec       	ldi	r24, 0xC3	; 195
 8ae:	99 e0       	ldi	r25, 0x09	; 9
 8b0:	21 50       	subi	r18, 0x01	; 1
 8b2:	80 40       	sbci	r24, 0x00	; 0
 8b4:	90 40       	sbci	r25, 0x00	; 0
 8b6:	e1 f7       	brne	.-8      	; 0x8b0 <__DATA_REGION_LENGTH__+0xb0>
 8b8:	00 c0       	rjmp	.+0      	; 0x8ba <__DATA_REGION_LENGTH__+0xba>
 8ba:	00 00       	nop
				_delay_ms(200);
				lcd_init();
 8bc:	0e 94 0e 01 	call	0x21c	; 0x21c <lcd_init>
				lcd_cmd(0x80);
 8c0:	80 e8       	ldi	r24, 0x80	; 128
 8c2:	0e 94 c4 00 	call	0x188	; 0x188 <lcd_cmd>
				lcd_msg("Enter RED value");
 8c6:	82 e7       	ldi	r24, 0x72	; 114
 8c8:	91 e0       	ldi	r25, 0x01	; 1
 8ca:	0e 94 71 01 	call	0x2e2	; 0x2e2 <lcd_msg>
				int Red_Val= get_3_int_digits();
 8ce:	0e 94 65 02 	call	0x4ca	; 0x4ca <get_3_int_digits>
 8d2:	6c 01       	movw	r12, r24
 8d4:	2f ef       	ldi	r18, 0xFF	; 255
 8d6:	81 ee       	ldi	r24, 0xE1	; 225
 8d8:	94 e0       	ldi	r25, 0x04	; 4
 8da:	21 50       	subi	r18, 0x01	; 1
 8dc:	80 40       	sbci	r24, 0x00	; 0
 8de:	90 40       	sbci	r25, 0x00	; 0
 8e0:	e1 f7       	brne	.-8      	; 0x8da <__DATA_REGION_LENGTH__+0xda>
 8e2:	00 c0       	rjmp	.+0      	; 0x8e4 <__DATA_REGION_LENGTH__+0xe4>
 8e4:	00 00       	nop
				_delay_ms(100);
				lcd_init();
 8e6:	0e 94 0e 01 	call	0x21c	; 0x21c <lcd_init>
				lcd_cmd(0x80);
 8ea:	80 e8       	ldi	r24, 0x80	; 128
 8ec:	0e 94 c4 00 	call	0x188	; 0x188 <lcd_cmd>
				lcd_msg("Enter GREEN");
 8f0:	82 e8       	ldi	r24, 0x82	; 130
 8f2:	91 e0       	ldi	r25, 0x01	; 1
 8f4:	0e 94 71 01 	call	0x2e2	; 0x2e2 <lcd_msg>
				lcd_cmd(0xC0);
 8f8:	80 ec       	ldi	r24, 0xC0	; 192
 8fa:	0e 94 c4 00 	call	0x188	; 0x188 <lcd_cmd>
				lcd_msg("value");
 8fe:	8c e7       	ldi	r24, 0x7C	; 124
 900:	91 e0       	ldi	r25, 0x01	; 1
 902:	0e 94 71 01 	call	0x2e2	; 0x2e2 <lcd_msg>
				int Green_Val=get_3_int_digits();
 906:	0e 94 65 02 	call	0x4ca	; 0x4ca <get_3_int_digits>
 90a:	7c 01       	movw	r14, r24
 90c:	2f ef       	ldi	r18, 0xFF	; 255
 90e:	81 ee       	ldi	r24, 0xE1	; 225
 910:	94 e0       	ldi	r25, 0x04	; 4
 912:	21 50       	subi	r18, 0x01	; 1
 914:	80 40       	sbci	r24, 0x00	; 0
 916:	90 40       	sbci	r25, 0x00	; 0
 918:	e1 f7       	brne	.-8      	; 0x912 <__stack+0x13>
 91a:	00 c0       	rjmp	.+0      	; 0x91c <__stack+0x1d>
 91c:	00 00       	nop
				_delay_ms(100);
				lcd_init();
 91e:	0e 94 0e 01 	call	0x21c	; 0x21c <lcd_init>
				lcd_cmd(0x80);
 922:	80 e8       	ldi	r24, 0x80	; 128
 924:	0e 94 c4 00 	call	0x188	; 0x188 <lcd_cmd>
				lcd_msg("Enter BLUE value");
 928:	8e e8       	ldi	r24, 0x8E	; 142
 92a:	91 e0       	ldi	r25, 0x01	; 1
 92c:	0e 94 71 01 	call	0x2e2	; 0x2e2 <lcd_msg>
				int Blue_Val= get_3_int_digits();
 930:	0e 94 65 02 	call	0x4ca	; 0x4ca <get_3_int_digits>
 934:	8c 01       	movw	r16, r24
				pwm(0,Red_Val);
 936:	b6 01       	movw	r22, r12
 938:	80 e0       	ldi	r24, 0x00	; 0
 93a:	90 e0       	ldi	r25, 0x00	; 0
 93c:	0e 94 f5 02 	call	0x5ea	; 0x5ea <pwm>
				pwm(1,Green_Val);
 940:	b7 01       	movw	r22, r14
 942:	81 e0       	ldi	r24, 0x01	; 1
 944:	90 e0       	ldi	r25, 0x00	; 0
 946:	0e 94 f5 02 	call	0x5ea	; 0x5ea <pwm>
				pwm(2,Blue_Val);
 94a:	b8 01       	movw	r22, r16
 94c:	82 e0       	ldi	r24, 0x02	; 2
 94e:	90 e0       	ldi	r25, 0x00	; 0
 950:	0e 94 f5 02 	call	0x5ea	; 0x5ea <pwm>
 954:	2f ef       	ldi	r18, 0xFF	; 255
 956:	83 ed       	ldi	r24, 0xD3	; 211
 958:	90 e3       	ldi	r25, 0x30	; 48
 95a:	21 50       	subi	r18, 0x01	; 1
 95c:	80 40       	sbci	r24, 0x00	; 0
 95e:	90 40       	sbci	r25, 0x00	; 0
 960:	e1 f7       	brne	.-8      	; 0x95a <__stack+0x5b>
 962:	00 c0       	rjmp	.+0      	; 0x964 <__stack+0x65>
 964:	00 00       	nop
				_delay_ms(1000);
				pwm(0,0);
 966:	60 e0       	ldi	r22, 0x00	; 0
 968:	70 e0       	ldi	r23, 0x00	; 0
 96a:	80 e0       	ldi	r24, 0x00	; 0
 96c:	90 e0       	ldi	r25, 0x00	; 0
 96e:	0e 94 f5 02 	call	0x5ea	; 0x5ea <pwm>
				pwm(1,0);
 972:	60 e0       	ldi	r22, 0x00	; 0
 974:	70 e0       	ldi	r23, 0x00	; 0
 976:	81 e0       	ldi	r24, 0x01	; 1
 978:	90 e0       	ldi	r25, 0x00	; 0
 97a:	0e 94 f5 02 	call	0x5ea	; 0x5ea <pwm>
				pwm(2,0);
 97e:	60 e0       	ldi	r22, 0x00	; 0
 980:	70 e0       	ldi	r23, 0x00	; 0
 982:	82 e0       	ldi	r24, 0x02	; 2
 984:	90 e0       	ldi	r25, 0x00	; 0
 986:	0e 94 f5 02 	call	0x5ea	; 0x5ea <pwm>
				main();
 98a:	0e 94 21 03 	call	0x642	; 0x642 <main>

0000098e <utoa>:
 98e:	45 32       	cpi	r20, 0x25	; 37
 990:	51 05       	cpc	r21, r1
 992:	20 f4       	brcc	.+8      	; 0x99c <utoa+0xe>
 994:	42 30       	cpi	r20, 0x02	; 2
 996:	10 f0       	brcs	.+4      	; 0x99c <utoa+0xe>
 998:	0c 94 d2 04 	jmp	0x9a4	; 0x9a4 <__utoa_ncheck>
 99c:	fb 01       	movw	r30, r22
 99e:	10 82       	st	Z, r1
 9a0:	cb 01       	movw	r24, r22
 9a2:	08 95       	ret

000009a4 <__utoa_ncheck>:
 9a4:	bb 27       	eor	r27, r27

000009a6 <__utoa_common>:
 9a6:	fb 01       	movw	r30, r22
 9a8:	55 27       	eor	r21, r21
 9aa:	aa 27       	eor	r26, r26
 9ac:	88 0f       	add	r24, r24
 9ae:	99 1f       	adc	r25, r25
 9b0:	aa 1f       	adc	r26, r26
 9b2:	a4 17       	cp	r26, r20
 9b4:	10 f0       	brcs	.+4      	; 0x9ba <__utoa_common+0x14>
 9b6:	a4 1b       	sub	r26, r20
 9b8:	83 95       	inc	r24
 9ba:	50 51       	subi	r21, 0x10	; 16
 9bc:	b9 f7       	brne	.-18     	; 0x9ac <__utoa_common+0x6>
 9be:	a0 5d       	subi	r26, 0xD0	; 208
 9c0:	aa 33       	cpi	r26, 0x3A	; 58
 9c2:	08 f0       	brcs	.+2      	; 0x9c6 <__utoa_common+0x20>
 9c4:	a9 5d       	subi	r26, 0xD9	; 217
 9c6:	a1 93       	st	Z+, r26
 9c8:	00 97       	sbiw	r24, 0x00	; 0
 9ca:	79 f7       	brne	.-34     	; 0x9aa <__utoa_common+0x4>
 9cc:	b1 11       	cpse	r27, r1
 9ce:	b1 93       	st	Z+, r27
 9d0:	11 92       	st	Z+, r1
 9d2:	cb 01       	movw	r24, r22
 9d4:	0c 94 ec 04 	jmp	0x9d8	; 0x9d8 <strrev>

000009d8 <strrev>:
 9d8:	dc 01       	movw	r26, r24
 9da:	fc 01       	movw	r30, r24
 9dc:	67 2f       	mov	r22, r23
 9de:	71 91       	ld	r23, Z+
 9e0:	77 23       	and	r23, r23
 9e2:	e1 f7       	brne	.-8      	; 0x9dc <strrev+0x4>
 9e4:	32 97       	sbiw	r30, 0x02	; 2
 9e6:	04 c0       	rjmp	.+8      	; 0x9f0 <strrev+0x18>
 9e8:	7c 91       	ld	r23, X
 9ea:	6d 93       	st	X+, r22
 9ec:	70 83       	st	Z, r23
 9ee:	62 91       	ld	r22, -Z
 9f0:	ae 17       	cp	r26, r30
 9f2:	bf 07       	cpc	r27, r31
 9f4:	c8 f3       	brcs	.-14     	; 0x9e8 <strrev+0x10>
 9f6:	08 95       	ret

000009f8 <_exit>:
 9f8:	f8 94       	cli

000009fa <__stop_program>:
 9fa:	ff cf       	rjmp	.-2      	; 0x9fa <__stop_program>
